; Function Attrs: mustprogress nounwind uwtable
define internal void @_ZN12_GLOBAL__N_115SynthXilinxPassD0Ev(ptr noundef nonnull align 8 dereferenceable(340) %0) unnamed_addr #3 align 2 {
  store ptr getelementptr inbounds ({ [12 x ptr] }, ptr @_ZTVN12_GLOBAL__N_115SynthXilinxPassE, i64 0, i32 0, i64 2), ptr %0, align 8
  %2 = getelementptr inbounds i8, ptr %0, i64 280
  tail call void @_ZNSt7__cxx1112basic_stringIcSt11char_traitsIcESaIcEED1Ev(ptr noundef nonnull align 8 dereferenceable(32) %2) #22
  %3 = getelementptr inbounds i8, ptr %0, i64 248
  tail call void @_ZNSt7__cxx1112basic_stringIcSt11char_traitsIcESaIcEED1Ev(ptr noundef nonnull align 8 dereferenceable(32) %3) #22
  %4 = getelementptr inbounds i8, ptr %0, i64 216
  tail call void @_ZNSt7__cxx1112basic_stringIcSt11char_traitsIcESaIcEED1Ev(ptr noundef nonnull align 8 dereferenceable(32) %4) #22
  %5 = getelementptr inbounds i8, ptr %0, i64 184
  tail call void @_ZNSt7__cxx1112basic_stringIcSt11char_traitsIcESaIcEED1Ev(ptr noundef nonnull align 8 dereferenceable(32) %5) #22
  store ptr getelementptr inbounds ({ [12 x ptr] }, ptr @_ZTVN5Yosys10ScriptPassE, i64 0, i32 0, i64 2), ptr %0, align 8
  %6 = getelementptr inbounds i8, ptr %0, i64 152
  tail call void @_ZNSt7__cxx1112basic_stringIcSt11char_traitsIcESaIcEED1Ev(ptr noundef nonnull align 8 dereferenceable(32) %6) #22
  %7 = getelementptr inbounds i8, ptr %0, i64 120
  tail call void @_ZNSt7__cxx1112basic_stringIcSt11char_traitsIcESaIcEED1Ev(ptr noundef nonnull align 8 dereferenceable(32) %7) #22
  tail call void @_ZN5Yosys4PassD2Ev(ptr noundef nonnull align 8 dereferenceable(104) %0) #22
  tail call void @_ZdlPv(ptr noundef nonnull %0) #23
  ret void
}